(dp1
S'irc'
p2
ccopy_reg
_reconstructor
p3
(ctwisted.plugin
CachedDropin
p4
c__builtin__
object
p5
NtRp6
(dp7
S'moduleName'
p8
S'janecore.events.irc'
p9
sS'description'
p10
S' \nNote that not all of these events are consumed\nor implemented\n'
p11
sS'plugins'
p12
(lp13
g3
(ctwisted.plugin
CachedPlugin
p14
g5
NtRp15
(dp16
S'provided'
p17
(lp18
ctwisted.plugin
IPlugin
p19
acjanecore.eventmanager.interface
IEventList
p20
asS'dropin'
p21
g6
sS'name'
p22
S'core_events'
p23
sg10
Nsbag3
(g14
g5
NtRp24
(dp25
g17
(lp26
g19
ag20
asg21
g6
sg22
S'action_events'
p27
sg10
Nsbag3
(g14
g5
NtRp28
(dp29
g17
(lp30
g19
ag20
asg21
g6
sg22
S'incoming_events'
p31
sg10
Nsbag3
(g14
g5
NtRp32
(dp33
g17
(lp34
g19
ag20
asg21
g6
sg22
S'system_events'
p35
sg10
Nsbag3
(g14
g5
NtRp36
(dp37
g17
(lp38
g19
ag20
asg21
g6
sg22
S'observed_events'
p39
sg10
Nsbasbs.