(dp1
S'ditto'
p2
ccopy_reg
_reconstructor
p3
(ctwisted.plugin
CachedDropin
p4
c__builtin__
object
p5
NtRp6
(dp7
S'moduleName'
p8
S'janecore.plugins.ditto'
p9
sS'description'
p10
NsS'plugins'
p11
(lp12
g3
(ctwisted.plugin
CachedPlugin
p13
g5
NtRp14
(dp15
S'provided'
p16
(lp17
ctwisted.plugin
IPlugin
p18
acjanecore.eventmanager.interface
IEventListener
p19
asS'dropin'
p20
g6
sS'name'
p21
S'ditto_plugin'
p22
sg10
Nsbasbs.